; Function Attrs: mustprogress nofree norecurse nosync nounwind willreturn memory(argmem: readwrite) uwtable
define hidden void @_ZN6casadi18UniversalNodeOwnerC2EOS0_(ptr nocapture noundef nonnull writeonly align 8 dereferenceable(9) %0, ptr nocapture noundef nonnull align 8 dereferenceable(9) %1) unnamed_addr #7 align 2 {
  %3 = load ptr, ptr %1, align 8
  store ptr %3, ptr %0, align 8
  %4 = getelementptr inbounds i8, ptr %0, i64 8
  %5 = getelementptr inbounds i8, ptr %1, i64 8
  %6 = load i8, ptr %5, align 8
  %7 = and i8 %6, 1
  store i8 %7, ptr %4, align 8
  store ptr null, ptr %1, align 8
  ret void
}